; Function Attrs: mustprogress uwtable
define void @_ZNK6google8protobuf11MessageLite17SerializeAsStringB5cxx11Ev(ptr noalias nonnull sret(%"class.std::__cxx11::basic_string") align 8 %agg.result, ptr noundef nonnull align 8 dereferenceable(16) %this) local_unnamed_addr #3 align 2 personality ptr @__gxx_personality_v0 {
entry:
  tail call void @_ZNSt7__cxx1112basic_stringIcSt11char_traitsIcESaIcEEC1Ev(ptr noundef nonnull align 8 dereferenceable(32) %agg.result) #20
  %call.i1 = invoke noundef zeroext i1 @_ZNK6google8protobuf11MessageLite21AppendPartialToStringEPNSt7__cxx1112basic_stringIcSt11char_traitsIcESaIcEEE(ptr noundef nonnull align 8 dereferenceable(16) %this, ptr noundef %agg.result)
          to label %invoke.cont unwind label %lpad

invoke.cont:                                      ; preds = %entry
  br i1 %call.i1, label %nrvo.skipdtor, label %if.then

if.then:                                          ; preds = %invoke.cont
  tail call void @_ZNSt7__cxx1112basic_stringIcSt11char_traitsIcESaIcEE5clearEv(ptr noundef nonnull align 8 dereferenceable(32) %agg.result) #20
  br label %nrvo.skipdtor

lpad:                                             ; preds = %entry
  %0 = landingpad { ptr, i32 }
          cleanup
  tail call void @_ZNSt7__cxx1112basic_stringIcSt11char_traitsIcESaIcEED1Ev(ptr noundef nonnull align 8 dereferenceable(32) %agg.result) #20
  resume { ptr, i32 } %0

nrvo.skipdtor:                                    ; preds = %invoke.cont, %if.then
  ret void
}